; Function Attrs: nounwind uwtable
define hidden void @lj_cdata_setfin(ptr noundef %0, ptr noundef %1, ptr noundef %2, i32 noundef %3) local_unnamed_addr #0 {
  %5 = alloca %union.TValue, align 8
  %6 = getelementptr inbounds nuw i8, ptr %0, i64 16
  %7 = load i64, ptr %6, align 8, !tbaa !28
  %8 = inttoptr i64 %7 to ptr
  %9 = getelementptr inbounds nuw i8, ptr %8, i64 728
  %10 = load i64, ptr %9, align 8, !tbaa !59
  %11 = inttoptr i64 %10 to ptr
  %12 = getelementptr inbounds nuw i8, ptr %11, i64 32
  %13 = load i64, ptr %12, align 8, !tbaa !60
  %.not = icmp eq i64 %13, 0
  br i1 %.not, label %41, label %14

14:                                               ; preds = %4
  call void @llvm.lifetime.start.p0(i64 8, ptr nonnull %5) #4
  %15 = ptrtoint ptr %1 to i64
  %16 = or i64 %15, -1548112371908608
  store i64 %16, ptr %5, align 8, !tbaa !47
  %17 = getelementptr inbounds nuw i8, ptr %11, i64 8
  %18 = load i8, ptr %17, align 8, !tbaa !47
  %19 = and i8 %18, 4
  %.not16 = icmp eq i8 %19, 0
  br i1 %.not16, label %25, label %20, !prof !46

20:                                               ; preds = %14
  %21 = and i8 %18, -5
  store i8 %21, ptr %17, align 8, !tbaa !47
  %22 = getelementptr inbounds nuw i8, ptr %8, i64 64
  %23 = load i64, ptr %22, align 8, !tbaa !62
  %24 = getelementptr inbounds nuw i8, ptr %11, i64 24
  store i64 %23, ptr %24, align 8, !tbaa !63
  store i64 %10, ptr %22, align 8, !tbaa !62
  br label %25

25:                                               ; preds = %20, %14
  %26 = call ptr @lj_tab_set(ptr noundef nonnull %0, ptr noundef nonnull %11, ptr noundef nonnull %5) #4
  %27 = icmp eq i32 %3, -1
  br i1 %27, label %28, label %32

28:                                               ; preds = %25
  store i64 -1, ptr %26, align 8, !tbaa !47
  %29 = getelementptr inbounds nuw i8, ptr %1, i64 8
  %30 = load i8, ptr %29, align 8, !tbaa !45
  %31 = and i8 %30, -17
  store i8 %31, ptr %29, align 8, !tbaa !45
  br label %40

32:                                               ; preds = %25
  %33 = ptrtoint ptr %2 to i64
  %34 = zext i32 %3 to i64
  %35 = shl i64 %34, 47
  %36 = or i64 %35, %33
  store i64 %36, ptr %26, align 8, !tbaa !47
  %37 = getelementptr inbounds nuw i8, ptr %1, i64 8
  %38 = load i8, ptr %37, align 8, !tbaa !45
  %39 = or i8 %38, 16
  store i8 %39, ptr %37, align 8, !tbaa !45
  br label %40

40:                                               ; preds = %32, %28
  call void @llvm.lifetime.end.p0(i64 8, ptr nonnull %5) #4
  br label %41

41:                                               ; preds = %40, %4
  ret void
}